                        .module main.c
                        .area text(rom, con, rel)
 0000                   .dbfile C:\Users\user\Desktop\hidden-catch\main.c
                        .area data(ram, con, rel)
 0000                   .dbfile C:\Users\user\Desktop\hidden-catch\main.c
 0000           _score#j::
 0000                   .blkb 2
                        .area idata(rom)
 0000 0000              .word 0
                        .area data(ram, con, rel)
 0002                   .dbfile C:\Users\user\Desktop\hidden-catch\main.c
 0002                   .dbsym e score _score#j i
 0002           _start_flag#i::
 0002                   .blkb 2
                        .area idata(rom)
 0002 0000              .word 0
                        .area data(ram, con, rel)
 0004                   .dbfile C:\Users\user\Desktop\hidden-catch\main.c
 0004                   .dbsym e start_flag _start_flag#i I
 0004           _q1_flag#i::
 0004                   .blkb 2
                        .area idata(rom)
 0004 0000              .word 0
                        .area data(ram, con, rel)
 0006                   .dbfile C:\Users\user\Desktop\hidden-catch\main.c
 0006                   .dbsym e q1_flag _q1_flag#i I
                        .area text(rom, con, rel)
 0000                   .dbfile C:\Users\user\Desktop\hidden-catch\main.c
 0000                   .dbfunc e Interrupt_init _Interrupt_init#Fvv fV 14
                        .even
 0000           _Interrupt_init#Fvv::
 0000                   .dbblock 14
 0000                   .dbline 15
 0000 89B7              in R24,0x39
 0002 8160              ori R24,1
 0004 89BF              out 0x39,R24
 0006                   .dbline 16
 0006 80916A00          lds R24,106
 000A 8A6A              ori R24,170
 000C 80936A00          sts 106,R24
 0010                   .dbline 18
 0010 8AB7              in R24,0x3a
 0012 8A6A              ori R24,170
 0014 8ABF              out 0x3a,R24
 0016                   .dbline 20
 0016 7894              bset 7
 0018                   .dbblkend 21
 0018           L1:
 0018 0895              ret
 001A                   .dbfuncend
 001A                   .dbstacksize -2
 001A                   .dbfunc e LCD_game_start _LCD_game_start#Fvv fV 23
                        .even
 001A           _LCD_game_start#Fvv::
 001A                   .dbblock 23
 001A                   .dbline 24
 001A 20900200          lds R2,_start_flag#i
 001E 30900300          lds R3,_start_flag#i+1
 0022 2220              tst R2
 0024 19F4              brne X0
 0026 3320              tst R3
 0028 09F4              brne X1
 002A 44C0              xjmp L3
 002C           X1:
 002C           X0:
 002C                   .dbline 25
 002C 0E940000          xcall _Cursor_Home#Fvv
 0030                   .dbline 26
 0030 00E0              ldi R16,<_5#A15_c
 0032 10E0              ldi R17,>_5#A15_c
 0034 0E940000          xcall _LCD_STR#FvPh
 0038                   .dbline 27
 0038 2FE0              ldi R18,15
 003A 0027              clr R16
 003C 0E940000          xcall _LCD_pos#Fvhh
 0040                   .dbline 28
 0040 00E0              ldi R16,<_6#A2_c
 0042 10E0              ldi R17,>_6#A2_c
 0044 0E940000          xcall _LCD_STR#FvPh
 0048                   .dbline 29
 0048 08EE              ldi R16,1000
 004A 13E0              ldi R17,3
 004C 0E940000          xcall _delay_ms#Fvj
 0050                   .dbline 31
 0050 2FE0              ldi R18,15
 0052 0027              clr R16
 0054 0E940000          xcall _LCD_pos#Fvhh
 0058                   .dbline 32
 0058 00E0              ldi R16,<_7#A2_c
 005A 10E0              ldi R17,>_7#A2_c
 005C 0E940000          xcall _LCD_STR#FvPh
 0060                   .dbline 33
 0060 08EE              ldi R16,1000
 0062 13E0              ldi R17,3
 0064 0E940000          xcall _delay_ms#Fvj
 0068                   .dbline 35
 0068 2FE0              ldi R18,15
 006A 0027              clr R16
 006C 0E940000          xcall _LCD_pos#Fvhh
 0070                   .dbline 36
 0070 00E0              ldi R16,<_8#A2_c
 0072 10E0              ldi R17,>_8#A2_c
 0074 0E940000          xcall _LCD_STR#FvPh
 0078                   .dbline 37
 0078 08EE              ldi R16,1000
 007A 13E0              ldi R17,3
 007C 0E940000          xcall _delay_ms#Fvj
 0080                   .dbline 39
 0080 0E940000          xcall _LCD_Clear#Fvv
 0084                   .dbline 40
 0084 0E940000          xcall _Cursor_Home#Fvv
 0088                   .dbline 41
 0088 00E0              ldi R16,<_9#A6_c
 008A 10E0              ldi R17,>_9#A6_c
 008C 0E940000          xcall _LCD_STR#FvPh
 0090                   .dbline 42
 0090 00E2              ldi R16,800
 0092 13E0              ldi R17,3
 0094 0E940000          xcall _delay_ms#Fvj
 0098                   .dbline 44
 0098 0E940000          xcall _LCD_Clear#Fvv
 009C                   .dbline 45
 009C 2224              clr R2
 009E 3324              clr R3
 00A0 30920300          sts _start_flag#i+1,R3
 00A4 20920200          sts _start_flag#i,R2
 00A8                   .dbline 46
 00A8 81E0              ldi R24,1
 00AA 90E0              ldi R25,0
 00AC 90930500          sts _q1_flag#i+1,R25
 00B0 80930400          sts _q1_flag#i,R24
 00B4           L3:
 00B4                   .dbblkend 48
 00B4           L2:
 00B4 0895              ret
 00B6                   .dbfuncend
 00B6                   .dbstacksize -2
 00B6                   .dbfunc e Quiz_1 _Quiz_1#Fvv fV 51
 00B6           ;              D -> R14
 00B6           ;     cursor_col -> R22
 00B6           ;     cursor_row -> R20
 00B6           ;     answer_col -> R12
 00B6           ;     answer_row -> R10
                        .even
 00B6           _Quiz_1#Fvv::
 00B6 0E940000          xcall push_xgsetF0FC
 00BA                   .dbblock 51
 00BA                   .dbline 52
 00BA 0E940000          xcall _Cursor_Home#Fvv
 00BE                   .dbline 55
 00BE 00E0              ldi R16,<_11#A17_c
 00C0 10E0              ldi R17,>_11#A17_c
 00C2 0E940000          xcall _LCD_STR#FvPh
 00C6                   .dbline 56
 00C6 2227              clr R18
 00C8 01E0              ldi R16,1
 00CA 0E940000          xcall _LCD_pos#Fvhh
 00CE                   .dbline 57
 00CE 00E0              ldi R16,<_11#A17_c
 00D0 10E0              ldi R17,>_11#A17_c
 00D2 0E940000          xcall _LCD_STR#FvPh
 00D6                   .dbblock 60
 00D6                   .dbline 60
 00D6 0E940000          xcall _rand#Fiv
 00DA 22E0              ldi R18,2
 00DC 30E0              ldi R19,0
 00DE 0E940000          xcall mod16s
 00E2 A02E              mov R10,R16
 00E4                   .dbline 61
 00E4 0E940000          xcall _rand#Fiv
 00E8 20E1              ldi R18,16
 00EA 30E0              ldi R19,0
 00EC 0E940000          xcall mod16s
 00F0 C02E              mov R12,R16
 00F2                   .dbline 63
 00F2 2C2D              mov R18,R12
 00F4 0A2D              mov R16,R10
 00F6 0E940000          xcall _LCD_pos#Fvhh
 00FA                   .dbline 64
 00FA 00E0              ldi R16,<_12#A2_c
 00FC 10E0              ldi R17,>_12#A2_c
 00FE 0E940000          xcall _LCD_STR#FvPh
 0102                   .dbline 66
 0102 0EE0              ldi R16,14
 0104 0E940000          xcall _LCD_Comm#Fvh
 0108                   .dbline 67
 0108 0E940000          xcall _Cursor_Home#Fvv
 010C                   .dbblock 69
 010C                   .dbline 69
 010C 4427              clr R20
 010E                   .dbline 69
 010E 6627              clr R22
 0110 50C0              xjmp L14
 0112           L13:
 0112                   .dbline 71
 0112 80B3              in R24,0x10
 0114 807F              andi R24,240
 0116 E82E              mov R14,R24
 0118                   .dbline 72
 0118 803B              cpi R24,176
 011A C9F0              breq L25
 011C           X2:
 011C 80EB              ldi R24,176
 011E 8E15              cp R24,R14
 0120 20F0              brlo L32
 0122           X3:
 0122           L31:
 0122 8E2D              mov R24,R14
 0124 8037              cpi R24,112
 0126 C1F0              breq L28
 0128           X4:
 0128 1AC0              xjmp L16
 012A           L32:
 012A 8E2D              mov R24,R14
 012C 803D              cpi R24,208
 012E 59F0              breq L22
 0130           X5:
 0130 803D              cpi R24,208
 0132 A8F0              brlo L16
 0134           X6:
 0134           L33:
 0134 8E2D              mov R24,R14
 0136 803E              cpi R24,224
 0138 09F0              breq L19
 013A           X7:
 013A 11C0              xjmp L16
 013C           L19:
 013C                   .dbline 73
 013C 2224              clr R2
 013E 2416              cp R2,R20
 0140 70F4              brsh L17
 0142           X8:
 0142                   .dbline 73
 0142 4A95              dec R20
 0144                   .dbline 73
 0144 0CC0              xjmp L17
 0146           L22:
 0146                   .dbline 74
 0146 4130              cpi R20,1
 0148 50F4              brsh L17
 014A           X9:
 014A                   .dbline 74
 014A 4395              inc R20
 014C                   .dbline 74
 014C 08C0              xjmp L17
 014E           L25:
 014E                   .dbline 75
 014E 2224              clr R2
 0150 2616              cp R2,R22
 0152 28F4              brsh L17
 0154           X10:
 0154                   .dbline 75
 0154 6A95              dec R22
 0156                   .dbline 75
 0156 03C0              xjmp L17
 0158           L28:
 0158                   .dbline 76
 0158 6F30              cpi R22,15
 015A 08F4              brsh L17
 015C           X11:
 015C                   .dbline 76
 015C 6395              inc R22
 015E           L16:
 015E           L17:
 015E                   .dbline 79
 015E 262F              mov R18,R22
 0160 042F              mov R16,R20
 0162 0E940000          xcall _LCD_pos#Fvhh
 0166                   .dbline 81
 0166 4A15              cp R20,R10
 0168 01F5              brne L34
 016A           X12:
 016A 6C15              cp R22,R12
 016C F1F4              brne L34
 016E           X13:
 016E                   .dbline 82
 016E 2224              clr R2
 0170 3324              clr R3
 0172 30920500          sts _q1_flag#i+1,R3
 0176 20920400          sts _q1_flag#i,R2
 017A                   .dbline 83
 017A 80910000          lds R24,_score#j
 017E 90910100          lds R25,_score#j+1
 0182 0196              adiw R24,1
 0184 90930100          sts _score#j+1,R25
 0188 80930000          sts _score#j,R24
 018C                   .dbline 84
 018C 0E940000          xcall _LCD_Clear#Fvv
 0190                   .dbline 85
 0190 0E940000          xcall _Cursor_Home#Fvv
 0194                   .dbline 86
 0194 00E0              ldi R16,<_36#A9_c
 0196 10E0              ldi R17,>_36#A9_c
 0198 0E940000          xcall _LCD_STR#FvPh
 019C                   .dbline 87
 019C 08EE              ldi R16,1000
 019E 13E0              ldi R17,3
 01A0 0E940000          xcall _delay_ms#Fvj
 01A4                   .dbline 88
 01A4 0E940000          xcall _LCD_Clear#Fvv
 01A8                   .dbline 89
 01A8 0DC0              xjmp L15
 01AA           L34:
 01AA                   .dbline 92
 01AA 04E6              ldi R16,100
 01AC 10E0              ldi R17,0
 01AE 0E940000          xcall _delay_ms#Fvj
 01B2           L14:
 01B2                   .dbline 70
 01B2 80910400          lds R24,_q1_flag#i
 01B6 90910500          lds R25,_q1_flag#i+1
 01BA 8130              cpi R24,1
 01BC E0E0              ldi R30,0
 01BE 9E07              cpc R25,R30
 01C0 09F4              brne X15
 01C2 A7CF              xjmp L13
 01C4           X15:
 01C4           X14:
 01C4           L15:
 01C4                   .dbline 97
 01C4 0EE0              ldi R16,14
 01C6 0E940000          xcall _LCD_Comm#Fvh
 01CA                   .dbline 98
 01CA 0E940000          xcall _Cursor_Home#Fvv
 01CE                   .dbblkend 101
 01CE                   .dbblkend 101
 01CE                   .dbblkend 101
 01CE           L10:
 01CE 0C940000          xjmp pop_xgsetF0FC
 01D2 0895              ret
 01D4                   .dbfuncend
 01D4                   .dbsym r D 14 c
 01D4                   .dbsym r cursor_col 22 c
 01D4                   .dbsym r cursor_row 20 c
 01D4                   .dbsym r answer_col 12 c
 01D4                   .dbsym r answer_row 10 c
 01D4                   .dbstacksize 8
 01D4                   .dbfunc e main _main#Fvv fV 103
                        .even
 01D4           _main#Fvv::
 01D4                   .dbblock 103
 01D4                   .dbline 104
 01D4 8FEF              ldi R24,255
 01D6 81BB              out 0x11,R24
 01D8                   .dbline 105
 01D8 82BB              out 0x12,R24
 01DA                   .dbline 106
 01DA 80B5              in R24,0x20
 01DC 8460              ori R24,4
 01DE 80BD              out 0x20,R24
 01E0                   .dbline 108
 01E0 0FDF              xcall _Interrupt_init#Fvv
 01E2                   .dbline 109
 01E2 0E940000          xcall _PortInit#Fvv
 01E6                   .dbline 110
 01E6 0E940000          xcall _LCD_Init#Fvv
 01EA                   .dbline 111
 01EA 0E940000          xcall _CGRAM_set_menu#Fvv
 01EE                   .dbline 113
 01EE 0E940000          xcall _Cursor_Home#Fvv
 01F2                   .dbline 114
 01F2 0E940000          xcall _LCD_menu#Fvv
 01F6                   .dbline 115
 01F6 0AE0              ldi R16,10
 01F8 10E0              ldi R17,0
 01FA 0E940000          xcall _delay_ms#Fvj
 01FE 1CC0              xjmp L39
 0200           L38:
 0200                   .dbline 118
 0200 80B3              in R24,0x10
 0202 8F7F              andi R24,255
 0204 8F37              cpi R24,127
 0206 39F4              brne L41
 0208           X16:
 0208                   .dbline 119
 0208 81E0              ldi R24,1
 020A 90E0              ldi R25,0
 020C 90930300          sts _start_flag#i+1,R25
 0210 80930200          sts _start_flag#i,R24
 0214                   .dbline 120
 0214 02DF              xcall _LCD_game_start#Fvv
 0216           L41:
 0216                   .dbline 122
 0216 20900200          lds R2,_start_flag#i
 021A 30900300          lds R3,_start_flag#i+1
 021E 2220              tst R2
 0220 59F4              brne L43
 0222 3320              tst R3
 0224 49F4              brne L43
 0226           X17:
 0226 80910400          lds R24,_q1_flag#i
 022A 90910500          lds R25,_q1_flag#i+1
 022E 8130              cpi R24,1
 0230 E0E0              ldi R30,0
 0232 9E07              cpc R25,R30
 0234 09F4              brne L43
 0236           X18:
 0236                   .dbline 123
 0236 3FDF              xcall _Quiz_1#Fvv
 0238           L43:
 0238           L39:
 0238                   .dbline 117
 0238 E3CF              xjmp L38
 023A           X19:
 023A                   .dbblkend 126
 023A           L37:
 023A 0895              ret
 023C                   .dbfuncend
 023C                   .dbstacksize -2
                        .area data(ram, con, rel)
 0006                   .dbfile C:\Users\user\Desktop\hidden-catch\main.c
 0006           _36#A9_c:
 0006                   .blkb 9
                        .area idata(rom)
 0006 436F72726563742100        .byte 'C,'o,'r,'r,'e,'c,'t,33,0
                        .area data(ram, con, rel)
 000F                   .dbfile C:\Users\user\Desktop\hidden-catch\main.c
 000F           _12#A2_c:
 000F                   .blkb 2
                        .area idata(rom)
 000F 4200              .byte 'B,0
                        .area data(ram, con, rel)
 0011                   .dbfile C:\Users\user\Desktop\hidden-catch\main.c
 0011           _11#A17_c:
 0011                   .blkb 17
                        .area idata(rom)
 0011 41414141414141414141414141414141  .byte 'A,'A,'A,'A,'A,'A,'A,'A,'A,'A,'A,'A,'A,'A,'A,'A
 0021 00                .byte 0
                        .area data(ram, con, rel)
 0022                   .dbfile C:\Users\user\Desktop\hidden-catch\main.c
 0022           _9#A6_c:
 0022                   .blkb 6
                        .area idata(rom)
 0022 474F21212100      .byte 'G,'O,33,33,33,0
                        .area data(ram, con, rel)
 0028                   .dbfile C:\Users\user\Desktop\hidden-catch\main.c
 0028           _8#A2_c:
 0028                   .blkb 2
                        .area idata(rom)
 0028 3100              .byte 49,0
                        .area data(ram, con, rel)
 002A                   .dbfile C:\Users\user\Desktop\hidden-catch\main.c
 002A           _7#A2_c:
 002A                   .blkb 2
                        .area idata(rom)
 002A 3200              .byte 50,0
                        .area data(ram, con, rel)
 002C                   .dbfile C:\Users\user\Desktop\hidden-catch\main.c
 002C           _6#A2_c:
 002C                   .blkb 2
                        .area idata(rom)
 002C 3300              .byte 51,0
                        .area data(ram, con, rel)
 002E                   .dbfile C:\Users\user\Desktop\hidden-catch\main.c
 002E           _5#A15_c:
 002E                   .blkb 15
                        .area idata(rom)
 002E 5374617274696E6720696E2E2E2E00    .byte 'S,'t,'a,'r,'t,'i,'n,'g,32,'i,'n,46,46,46,0
                        .area data(ram, con, rel)
 003D                   .dbfile C:\Users\user\Desktop\hidden-catch\main.c
